; Function Attrs: mustprogress uwtable
define dso_local noundef zeroext i1 @_ZNK8Variable10compatibleEPKS_(ptr noundef nonnull align 8 dereferenceable(200) %0, ptr noundef %1) local_unnamed_addr #5 align 2 {
  %3 = getelementptr inbounds nuw i8, ptr %0, i64 104
  %4 = tail call noundef zeroext i1 @_ZNK12CVQualifiers23is_volatile_after_derefEi(ptr noundef nonnull align 8 dereferenceable(96) %3, i32 noundef 0)
  br i1 %4, label %_ZNK8Variable11is_volatileEv.exit.thread, label %5

5:                                                ; preds = %2
  %6 = getelementptr inbounds nuw i8, ptr %0, i64 64
  %7 = load ptr, ptr %6, align 8, !tbaa !39
  %.not.i.i = icmp eq ptr %7, null
  br i1 %.not.i.i, label %_ZNK8Variable11is_volatileEv.exit.thread12, label %_ZNK8Variable11is_volatileEv.exit

_ZNK8Variable11is_volatileEv.exit:                ; preds = %5
  %8 = tail call noundef zeroext i1 @_ZNK4Type24is_volatile_struct_unionEv(ptr noundef nonnull align 8 dereferenceable(136) %7)
  br i1 %8, label %_ZNK8Variable11is_volatileEv.exit.thread, label %_ZNK8Variable11is_volatileEv.exit.thread12

_ZNK8Variable11is_volatileEv.exit.thread12:       ; preds = %5, %_ZNK8Variable11is_volatileEv.exit
  %9 = getelementptr inbounds nuw i8, ptr %1, i64 104
  %10 = tail call noundef zeroext i1 @_ZNK12CVQualifiers23is_volatile_after_derefEi(ptr noundef nonnull align 8 dereferenceable(96) %9, i32 noundef 0)
  br i1 %10, label %_ZNK8Variable11is_volatileEv.exit.thread, label %11

11:                                               ; preds = %_ZNK8Variable11is_volatileEv.exit.thread12
  %12 = getelementptr inbounds nuw i8, ptr %1, i64 64
  %13 = load ptr, ptr %12, align 8, !tbaa !39
  %.not.i.i7 = icmp eq ptr %13, null
  br i1 %.not.i.i7, label %_ZNK8Variable11is_volatileEv.exit10.thread15, label %_ZNK8Variable11is_volatileEv.exit10

_ZNK8Variable11is_volatileEv.exit10:              ; preds = %11
  %14 = tail call noundef zeroext i1 @_ZNK4Type24is_volatile_struct_unionEv(ptr noundef nonnull align 8 dereferenceable(136) %13)
  br i1 %14, label %_ZNK8Variable11is_volatileEv.exit.thread, label %_ZNK8Variable11is_volatileEv.exit10.thread15

_ZNK8Variable11is_volatileEv.exit10.thread15:     ; preds = %11, %_ZNK8Variable11is_volatileEv.exit10
  %15 = icmp eq ptr %0, %1
  br i1 %15, label %_ZNK8Variable11is_volatileEv.exit.thread, label %16

16:                                               ; preds = %_ZNK8Variable11is_volatileEv.exit10.thread15
  %17 = tail call noundef zeroext i1 @_ZN9CGOptions13expand_structEv()
  br i1 %17, label %18, label %_ZNK8Variable11is_volatileEv.exit.thread

18:                                               ; preds = %16
  %19 = getelementptr inbounds nuw i8, ptr %1, i64 88
  %20 = load ptr, ptr %19, align 8, !tbaa !80
  %.not = icmp eq ptr %20, null
  br i1 %.not, label %21, label %_ZNK8Variable11is_volatileEv.exit.thread

21:                                               ; preds = %18
  %22 = getelementptr inbounds nuw i8, ptr %0, i64 88
  %23 = load ptr, ptr %22, align 8, !tbaa !80
  %.not17 = icmp eq ptr %23, null
  br label %_ZNK8Variable11is_volatileEv.exit.thread

_ZNK8Variable11is_volatileEv.exit.thread:         ; preds = %_ZNK8Variable11is_volatileEv.exit.thread12, %2, %16, %18, %21, %_ZNK8Variable11is_volatileEv.exit10.thread15, %_ZNK8Variable11is_volatileEv.exit, %_ZNK8Variable11is_volatileEv.exit10
  %.0 = phi i1 [ false, %_ZNK8Variable11is_volatileEv.exit10 ], [ false, %_ZNK8Variable11is_volatileEv.exit ], [ true, %_ZNK8Variable11is_volatileEv.exit10.thread15 ], [ false, %18 ], [ %.not17, %21 ], [ false, %16 ], [ false, %2 ], [ false, %_ZNK8Variable11is_volatileEv.exit.thread12 ]
  ret i1 %.0
}